target datalayout = "e-m:e-p270:32:32-p271:32:32-p272:64:64-i64:64-i128:128-f80:128-n8:16:32:64-S128"
target triple = "x86_64-pc-linux-gnu"

%struct._lv_menu_t = type { %struct._lv_obj_t, ptr, ptr, ptr, ptr, ptr, ptr, ptr, ptr, ptr, ptr, ptr, ptr, %struct.lv_ll_t, i8, i8, i8 }
%struct._lv_obj_t = type { ptr, ptr, ptr, ptr, ptr, %struct.lv_area_t, i32, i16, i16 }
%struct.lv_area_t = type { i32, i32, i32, i32 }
%struct.lv_ll_t = type { i32, ptr, ptr }

; Function Attrs: nounwind uwtable
define internal void @lv_menu_page_constructor(ptr noundef %0, ptr noundef %1) #0 {
  %3 = alloca ptr, align 8
  %4 = alloca ptr, align 8
  %5 = alloca ptr, align 8
  store ptr %0, ptr %3, align 8, !tbaa !3
  store ptr %1, ptr %4, align 8, !tbaa !3
  call void @llvm.lifetime.start.p0(i64 8, ptr %5) #3
  %6 = load ptr, ptr %4, align 8, !tbaa !3
  %7 = call ptr @lv_obj_get_parent(ptr noundef %6)
  store ptr %7, ptr %5, align 8, !tbaa !3
  %8 = load ptr, ptr %4, align 8, !tbaa !3
  %9 = load ptr, ptr %5, align 8, !tbaa !3
  %10 = getelementptr inbounds nuw %struct._lv_menu_t, ptr %9, i32 0, i32 1
  %11 = load ptr, ptr %10, align 8, !tbaa !15
  call void @lv_obj_set_parent(ptr noundef %8, ptr noundef %11)
  %12 = load ptr, ptr %4, align 8, !tbaa !3
  call void @lv_obj_set_flex_flow(ptr noundef %12, i32 noundef 1)
  %13 = load ptr, ptr %4, align 8, !tbaa !3
  call void @lv_obj_set_flex_align(ptr noundef %13, i32 noundef 0, i32 noundef 2, i32 noundef 2)
  %14 = load ptr, ptr %4, align 8, !tbaa !3
  call void @lv_obj_add_flag(ptr noundef %14, i32 noundef 16384)
  call void @llvm.lifetime.end.p0(i64 8, ptr %5) #3
  ret void
}