; Function Attrs: nounwind uwtable
define internal void @lv_menu_page_constructor(ptr nocapture readnone %0, ptr noundef %1) #0 {
  %3 = tail call ptr @lv_obj_get_parent(ptr noundef %1) #4
  %4 = getelementptr inbounds nuw i8, ptr %3, i64 64
  %5 = load ptr, ptr %4, align 8, !tbaa !14
  tail call void @lv_obj_set_parent(ptr noundef %1, ptr noundef %5) #4
  tail call void @lv_obj_set_flex_flow(ptr noundef %1, i32 noundef 1) #4
  tail call void @lv_obj_set_flex_align(ptr noundef %1, i32 noundef 0, i32 noundef 2, i32 noundef 2) #4
  tail call void @lv_obj_add_flag(ptr noundef %1, i32 noundef 16384) #4
  ret void
}